target datalayout = "e-m:e-p270:32:32-p271:32:32-p272:64:64-i64:64-i128:128-f80:128-n8:16:32:64-S128"
target triple = "x86_64-pc-linux-gnu"

%class.LibRaw = type { ptr, %struct.libraw_data_t, ptr, %struct.libraw_internal_data_t, [2048 x %struct.decode], ptr, ptr, [10 x %struct.tiff_ifd_t], %class.libraw_memmgr, %struct.libraw_callbacks_t, { i64, i64 }, { i64, i64 }, { i64, i64 }, ptr, ptr, ptr, i64, ptr, ptr, ptr, ptr }
%struct.libraw_data_t = type { ptr, %struct.libraw_image_sizes_t, %struct.libraw_iparams_t, %struct.libraw_lensinfo_t, %struct.libraw_makernotes_t, %struct.libraw_shootinginfo_t, %struct.libraw_output_params_t, %struct.libraw_raw_unpack_params_t, i32, i32, %struct.libraw_colordata_t, %struct.libraw_imgother_t, %struct.libraw_thumbnail_t, %struct.libraw_thumbnail_list_t, %struct.libraw_rawdata_t, ptr }
%struct.libraw_image_sizes_t = type { i16, i16, i16, i16, i16, i16, i16, i16, i32, double, i32, [8 x [4 x i32]], i16, [2 x %struct.libraw_raw_inset_crop_t] }
%struct.libraw_raw_inset_crop_t = type { i16, i16, i16, i16 }
%struct.libraw_iparams_t = type { [4 x i8], [64 x i8], [64 x i8], [64 x i8], [64 x i8], [64 x i8], i32, i32, i32, i32, i32, i32, [6 x [6 x i8]], [6 x [6 x i8]], [5 x i8], i32, ptr }
%struct.libraw_lensinfo_t = type { float, float, float, float, float, [128 x i8], [128 x i8], [128 x i8], [128 x i8], i16, %struct.libraw_nikonlens_t, %struct.libraw_dnglens_t, %struct.libraw_makernotes_lens_t }
%struct.libraw_nikonlens_t = type { float, i8, i8, i8, i8 }
%struct.libraw_dnglens_t = type { float, float, float, float }
%struct.libraw_makernotes_lens_t = type { i64, [128 x i8], i16, i16, i64, i16, i16, [64 x i8], i16, [16 x i8], [16 x i8], float, float, float, float, float, float, float, float, float, float, float, float, float, float, float, i64, [128 x i8], i64, [128 x i8], i64, [128 x i8], i16, float }
%struct.libraw_makernotes_t = type { %struct.libraw_canon_makernotes_t, %struct.libraw_nikon_makernotes_t, %struct.libraw_hasselblad_makernotes_t, %struct.libraw_fuji_info_t, %struct.libraw_olympus_makernotes_t, %struct.libraw_sony_info_t, %struct.libraw_kodak_makernotes_t, %struct.libraw_panasonic_makernotes_t, %struct.libraw_pentax_makernotes_t, %struct.libraw_p1_makernotes_t, %struct.libraw_ricoh_makernotes_t, %struct.libraw_samsung_makernotes_t, %struct.libraw_metadata_common_t }
%struct.libraw_canon_makernotes_t = type { i32, i32, i32, i32, [4 x i32], i32, [4 x i32], i16, i16, i8, i16, i16, i16, i16, i16, i16, i16, i16, i16, i16, i16, i16, i16, i32, float, i16, i16, i16, i32, i16, i32, i32, i16, i32, %struct.libraw_area_t, %struct.libraw_area_t, %struct.libraw_area_t, %struct.libraw_area_t, %struct.libraw_area_t, [2 x i16] }
%struct.libraw_area_t = type { i16, i16, i16, i16 }
%struct.libraw_nikon_makernotes_t = type { double, i16, i16, [7 x i8], i8, i8, [13 x i8], [20 x i8], [4 x i8], [4 x i8], [4 x i8], i8, i8, i8, i8, i8, [2 x i8], i8, i8, i8, i8, i8, [4 x i8], [4 x i8], i8, i16, i32, i32, i32, i32, [4 x double], i8, i8, i8, i32, i32, i32, i8, [4 x i16], i16, %struct.libraw_sensor_highspeed_crop_t, i16, i16, i16, i32, [20 x i8], [20 x i8], i32, i16, double, double, double }
%struct.libraw_sensor_highspeed_crop_t = type { i16, i16, i16, i16 }
%struct.libraw_hasselblad_makernotes_t = type { i32, double, [8 x i8], [64 x i8], [64 x i8], i32, i32, i32, i32, [32 x i8], [64 x i8], i32, [2 x i32], [2 x i32], [4 x [3 x double]] }
%struct.libraw_fuji_info_t = type { float, i16, i16, i16, i16, i16, i16, i16, i16, [33 x i8], [33 x i8], float, i16, i16, [2 x i16], i16, i32, i32, i16, [3 x i16], i16, i16, i16, i16, i16, i32, i16, [13 x i8], [5 x i8], [5 x i8], i32, i16, i32, i16, [9 x i16], [32 x i32], i32, i32, i32, [2 x float], i32 }
%struct.libraw_olympus_makernotes_t = type { [6 x i8], i16, [2 x i32], [5 x i16], i16, [2 x i16], i16, i16, [64 x i32], [5 x double], i16, i8, [3 x i16], [3 x i32], i16, i16, i16, i16, double, [4 x i16], [2 x i32], i8, i32, i16, i16 }
%struct.libraw_sony_info_t = type { i16, i8, i8, i32, i8, i32, i8, i8, i16, [2 x i16], i8, i8, i16, [10 x i8], i8, i8, [4 x i16], i16, i8, i8, i8, i16, i32, i16, [2 x i16], i16, i16, i16, i16, i16, i16, i16, i32, float, i16, i32, i32, i16, [20 x i8], i32, i16, i32, i8, i8, i16, i16, i16, i16, i16, i16, i16, i16, i16, i32, i16, [16 x i8], float }
%struct.libraw_kodak_makernotes_t = type { i16, i16, i16, i16, i16, i16, [3 x [3 x float]], [3 x [3 x float]], [3 x [3 x float]], [3 x [3 x float]], [3 x [3 x float]], [3 x [3 x float]], i16, i16, i16, i16, float, float }
%struct.libraw_panasonic_makernotes_t = type { i16, i16, [8 x float], i32, float, [3 x i32], i16, i16, i32, i32 }
%struct.libraw_pentax_makernotes_t = type { [4 x i8], [2 x i16], [2 x i16], i16, i32, i32, i16, i16, i8, i8, i16 }
%struct.libraw_p1_makernotes_t = type { [64 x i8], [64 x i8], [256 x i8], [64 x i8] }
%struct.libraw_ricoh_makernotes_t = type { i16, [2 x i32], [2 x i32], i16, i32, i32, i32, i32, i16, i16, i16, i16, i16, i16, double, double }
%struct.libraw_samsung_makernotes_t = type { [4 x i32], [4 x i32], [2 x i32], [11 x i32], double, i32, [32 x i8] }
%struct.libraw_metadata_common_t = type { float, float, float, float, float, float, float, float, float, float, float, float, float, float, float, float, i16, [128 x i8], float, [4 x %struct.libraw_afinfo_item_t], i32 }
%struct.libraw_afinfo_item_t = type { i32, i16, i32, i32, ptr }
%struct.libraw_shootinginfo_t = type { i16, i16, i16, i16, i16, i16, i16, [64 x i8], [64 x i8] }
%struct.libraw_output_params_t = type { [4 x i32], [4 x i32], [4 x double], [6 x double], [4 x float], float, float, i32, i32, i32, i32, i32, i32, i32, ptr, ptr, ptr, ptr, i32, i32, i32, i32, i32, i32, [4 x i32], i32, i32, float, float, i32, i32, i32, i32, i32, i32, i32, i32, float, float, i32, i32 }
%struct.libraw_raw_unpack_params_t = type { i32, i32, i32, i32, i32, i32, i32, float, [5 x i8], ptr }
%struct.libraw_colordata_t = type { [65536 x i16], [4104 x i32], i32, i32, i32, [4 x i64], float, float, [8 x [8 x i16]], [4 x float], [4 x float], [3 x [4 x float]], [3 x [4 x float]], [3 x [4 x float]], [4 x [3 x float]], %struct.ph1_t, float, float, [64 x i8], [64 x i8], [64 x i8], [64 x i8], [17 x i8], [64 x i8], ptr, i32, [8 x i32], [2 x %struct.libraw_dng_color_t], %struct.libraw_dng_levels_t, [256 x [4 x i32]], [64 x [5 x float]], i32, [2 x %struct.libraw_P1_color_t], i32, i32 }
%struct.ph1_t = type { i32, i32, i32, i32, i32, i32, i32, i32, float }
%struct.libraw_dng_color_t = type { i32, i16, [4 x [4 x float]], [4 x [3 x float]], [3 x [4 x float]] }
%struct.libraw_dng_levels_t = type { i32, [4104 x i32], i32, [4104 x float], float, [4 x i32], [4 x i16], [4 x float], i32, [4 x float], [4 x float], float, float }
%struct.libraw_P1_color_t = type { [9 x float] }
%struct.libraw_imgother_t = type { float, float, float, float, i64, i32, [32 x i32], %struct.libraw_gps_info_t, [512 x i8], [64 x i8], [4 x float] }
%struct.libraw_gps_info_t = type { [3 x float], [3 x float], [3 x float], float, i8, i8, i8, i8, i8 }
%struct.libraw_thumbnail_t = type { i32, i16, i16, i32, i32, ptr }
%struct.libraw_thumbnail_list_t = type { i32, [8 x %struct.libraw_thumbnail_item_t] }
%struct.libraw_thumbnail_item_t = type { i32, i16, i16, i16, i32, i32, i64 }
%struct.libraw_rawdata_t = type { ptr, ptr, ptr, ptr, ptr, ptr, ptr, ptr, ptr, %struct.libraw_iparams_t, %struct.libraw_image_sizes_t, %struct.libraw_internal_output_params_t, %struct.libraw_colordata_t }
%struct.libraw_internal_output_params_t = type { i32, i32, i32, i16, i16 }
%struct.libraw_internal_data_t = type { %struct.internal_data_t, %struct.libraw_internal_output_params_t, %struct.output_data_t, %struct.identify_data_t, %struct.unpacker_data_t }
%struct.internal_data_t = type { ptr, ptr, i32, ptr, i64, i64, [4 x i32] }
%struct.output_data_t = type { ptr, ptr }
%struct.identify_data_t = type { i32, i64, i64, i32, i32, i32 }
%struct.unpacker_data_t = type { i16, [4 x i16], [3 x i16], i32, i64, i64, i64, i64, i64, i64, i32, i32, i32, i32, i32, i32, i32, i32, i32, i32, i32, i32, i32, i32, i32, i32, i32, i64, i32, i32, i32, i32, i32, i32, i32, i32, i32, %struct.pana8_tags_t, [16 x %struct.crx_data_header_t], i32, i32, i16, i16, i32, i32, i32, i32, i32, i32, i32, [20 x i32], i16 }
%struct.pana8_tags_t = type { [6 x i32], [6 x i16], i16, [4 x i16], [17 x i16], [17 x i16], [17 x i16], i16, i16, [5 x i64], [5 x i16], [5 x i32], [5 x i16], [5 x i16] }
%struct.crx_data_header_t = type { i32, i32, i32, i32, i32, i32, i32, i32, i32, i32, i32, i32, i32, i32, i32, i64, i32, ptr, i32, i32, i32, ptr, i32, ptr }
%struct.decode = type { [2 x ptr], i32 }
%struct.tiff_ifd_t = type { i32, i32, i32, i32, i32, i32, i32, i32, i32, i32, i32, i32, i32, i32, i32, ptr, i32, ptr, i32, i32, i32, i32, i32, i32, i32, float, i64, i64, i32, [2 x %struct.libraw_dng_color_t], %struct.libraw_dng_levels_t, i32 }
%class.libraw_memmgr = type <{ ptr, i32, [4 x i8] }>
%struct.libraw_callbacks_t = type { ptr, ptr, ptr, ptr, ptr, ptr, ptr, ptr, ptr, ptr, ptr, ptr, ptr, ptr, ptr, ptr, ptr }

@.str.6 = private unnamed_addr constant [5 x i8] c"SMaL\00", align 1
@.str.7 = private unnamed_addr constant [10 x i8] c"v%d %dx%d\00", align 1

; Function Attrs: mustprogress uwtable
define void @_ZN6LibRaw10parse_smalEii(ptr noundef nonnull align 8 dereferenceable(767680) %0, i32 noundef %1, i32 noundef %2) #0 align 2 {
  %4 = alloca ptr, align 8
  %5 = alloca i32, align 4
  %6 = alloca i32, align 4
  %7 = alloca i32, align 4
  %8 = alloca i32, align 4
  store ptr %0, ptr %4, align 8, !tbaa !6
  store i32 %1, ptr %5, align 4, !tbaa !75
  store i32 %2, ptr %6, align 4, !tbaa !75
  %9 = load ptr, ptr %4, align 8
  call void @llvm.lifetime.start.p0(i64 4, ptr %7) #10
  %10 = getelementptr inbounds nuw %class.LibRaw, ptr %9, i32 0, i32 3
  %11 = getelementptr inbounds nuw %struct.libraw_internal_data_t, ptr %10, i32 0, i32 0
  %12 = getelementptr inbounds nuw %struct.internal_data_t, ptr %11, i32 0, i32 0
  %13 = load ptr, ptr %12, align 8, !tbaa !11
  %14 = load i32, ptr %5, align 4, !tbaa !75
  %15 = add nsw i32 %14, 2
  %16 = sext i32 %15 to i64
  %17 = load ptr, ptr %13, align 8, !tbaa !73
  %18 = getelementptr inbounds ptr, ptr %17, i64 4
  %19 = load ptr, ptr %18, align 8
  %20 = call noundef i32 %19(ptr noundef nonnull align 8 dereferenceable(8) %13, i64 noundef %16, i32 noundef 0)
  %21 = getelementptr inbounds nuw %class.LibRaw, ptr %9, i32 0, i32 3
  %22 = getelementptr inbounds nuw %struct.libraw_internal_data_t, ptr %21, i32 0, i32 4
  %23 = getelementptr inbounds nuw %struct.unpacker_data_t, ptr %22, i32 0, i32 0
  store i16 18761, ptr %23, align 8, !tbaa !86
  %24 = getelementptr inbounds nuw %class.LibRaw, ptr %9, i32 0, i32 3
  %25 = getelementptr inbounds nuw %struct.libraw_internal_data_t, ptr %24, i32 0, i32 0
  %26 = getelementptr inbounds nuw %struct.internal_data_t, ptr %25, i32 0, i32 0
  %27 = load ptr, ptr %26, align 8, !tbaa !11
  %28 = load ptr, ptr %27, align 8, !tbaa !73
  %29 = getelementptr inbounds ptr, ptr %28, i64 7
  %30 = load ptr, ptr %29, align 8
  %31 = call noundef i32 %30(ptr noundef nonnull align 8 dereferenceable(8) %27)
  store i32 %31, ptr %7, align 4, !tbaa !75
  %32 = load i32, ptr %7, align 4, !tbaa !75
  %33 = icmp eq i32 %32, 6
  br i1 %33, label %34, label %43

34:                                               ; preds = %3
  %35 = getelementptr inbounds nuw %class.LibRaw, ptr %9, i32 0, i32 3
  %36 = getelementptr inbounds nuw %struct.libraw_internal_data_t, ptr %35, i32 0, i32 0
  %37 = getelementptr inbounds nuw %struct.internal_data_t, ptr %36, i32 0, i32 0
  %38 = load ptr, ptr %37, align 8, !tbaa !11
  %39 = load ptr, ptr %38, align 8, !tbaa !73
  %40 = getelementptr inbounds ptr, ptr %39, i64 4
  %41 = load ptr, ptr %40, align 8
  %42 = call noundef i32 %41(ptr noundef nonnull align 8 dereferenceable(8) %38, i64 noundef 5, i32 noundef 1)
  br label %43

43:                                               ; preds = %34, %3
  %44 = call noundef i32 @_ZN6LibRaw4get4Ev(ptr noundef nonnull align 8 dereferenceable(767680) %9)
  %45 = load i32, ptr %6, align 4, !tbaa !75
  %46 = icmp ne i32 %44, %45
  br i1 %46, label %47, label %48

47:                                               ; preds = %43
  store i32 1, ptr %8, align 4
  br label %103

48:                                               ; preds = %43
  %49 = load i32, ptr %7, align 4, !tbaa !75
  %50 = icmp sgt i32 %49, 6
  br i1 %50, label %51, label %57

51:                                               ; preds = %48
  %52 = call noundef i32 @_ZN6LibRaw4get4Ev(ptr noundef nonnull align 8 dereferenceable(767680) %9)
  %53 = zext i32 %52 to i64
  %54 = getelementptr inbounds nuw %class.LibRaw, ptr %9, i32 0, i32 3
  %55 = getelementptr inbounds nuw %struct.libraw_internal_data_t, ptr %54, i32 0, i32 4
  %56 = getelementptr inbounds nuw %struct.unpacker_data_t, ptr %55, i32 0, i32 5
  store i64 %53, ptr %56, align 8, !tbaa !98
  br label %57

57:                                               ; preds = %51, %48
  %58 = call noundef zeroext i16 @_ZN6LibRaw4get2Ev(ptr noundef nonnull align 8 dereferenceable(767680) %9)
  %59 = getelementptr inbounds nuw %class.LibRaw, ptr %9, i32 0, i32 1
  %60 = getelementptr inbounds nuw %struct.libraw_data_t, ptr %59, i32 0, i32 1
  %61 = getelementptr inbounds nuw %struct.libraw_image_sizes_t, ptr %60, i32 0, i32 2
  store i16 %58, ptr %61, align 4, !tbaa !101
  %62 = getelementptr inbounds nuw %class.LibRaw, ptr %9, i32 0, i32 1
  %63 = getelementptr inbounds nuw %struct.libraw_data_t, ptr %62, i32 0, i32 1
  %64 = getelementptr inbounds nuw %struct.libraw_image_sizes_t, ptr %63, i32 0, i32 0
  store i16 %58, ptr %64, align 8, !tbaa !90
  %65 = call noundef zeroext i16 @_ZN6LibRaw4get2Ev(ptr noundef nonnull align 8 dereferenceable(767680) %9)
  %66 = getelementptr inbounds nuw %class.LibRaw, ptr %9, i32 0, i32 1
  %67 = getelementptr inbounds nuw %struct.libraw_data_t, ptr %66, i32 0, i32 1
  %68 = getelementptr inbounds nuw %struct.libraw_image_sizes_t, ptr %67, i32 0, i32 3
  store i16 %65, ptr %68, align 2, !tbaa !102
  %69 = getelementptr inbounds nuw %class.LibRaw, ptr %9, i32 0, i32 1
  %70 = getelementptr inbounds nuw %struct.libraw_data_t, ptr %69, i32 0, i32 1
  %71 = getelementptr inbounds nuw %struct.libraw_image_sizes_t, ptr %70, i32 0, i32 1
  store i16 %65, ptr %71, align 2, !tbaa !89
  %72 = getelementptr inbounds nuw %class.LibRaw, ptr %9, i32 0, i32 1
  %73 = getelementptr inbounds nuw %struct.libraw_data_t, ptr %72, i32 0, i32 2
  %74 = getelementptr inbounds nuw %struct.libraw_iparams_t, ptr %73, i32 0, i32 1
  %75 = getelementptr inbounds [64 x i8], ptr %74, i64 0, i64 0
  %76 = call ptr @strcpy(ptr noundef %75, ptr noundef @.str.6) #10
  %77 = getelementptr inbounds nuw %class.LibRaw, ptr %9, i32 0, i32 1
  %78 = getelementptr inbounds nuw %struct.libraw_data_t, ptr %77, i32 0, i32 2
  %79 = getelementptr inbounds nuw %struct.libraw_iparams_t, ptr %78, i32 0, i32 2
  %80 = getelementptr inbounds [64 x i8], ptr %79, i64 0, i64 0
  %81 = load i32, ptr %7, align 4, !tbaa !75
  %82 = getelementptr inbounds nuw %class.LibRaw, ptr %9, i32 0, i32 1
  %83 = getelementptr inbounds nuw %struct.libraw_data_t, ptr %82, i32 0, i32 1
  %84 = getelementptr inbounds nuw %struct.libraw_image_sizes_t, ptr %83, i32 0, i32 3
  %85 = load i16, ptr %84, align 2, !tbaa !102
  %86 = zext i16 %85 to i32
  %87 = getelementptr inbounds nuw %class.LibRaw, ptr %9, i32 0, i32 1
  %88 = getelementptr inbounds nuw %struct.libraw_data_t, ptr %87, i32 0, i32 1
  %89 = getelementptr inbounds nuw %struct.libraw_image_sizes_t, ptr %88, i32 0, i32 2
  %90 = load i16, ptr %89, align 4, !tbaa !101
  %91 = zext i16 %90 to i32
  %92 = call i32 (ptr, ptr, ...) @sprintf(ptr noundef %80, ptr noundef @.str.7, i32 noundef %81, i32 noundef %86, i32 noundef %91) #10
  %93 = load i32, ptr %7, align 4, !tbaa !75
  %94 = icmp eq i32 %93, 6
  br i1 %94, label %95, label %97

95:                                               ; preds = %57
  %96 = getelementptr inbounds nuw %class.LibRaw, ptr %9, i32 0, i32 11
  store { i64, i64 } { i64 ptrtoint (ptr @_ZN6LibRaw16smal_v6_load_rawEv to i64), i64 0 }, ptr %96, align 8, !tbaa !91
  br label %97

97:                                               ; preds = %95, %57
  %98 = load i32, ptr %7, align 4, !tbaa !75
  %99 = icmp eq i32 %98, 9
  br i1 %99, label %100, label %102

100:                                              ; preds = %97
  %101 = getelementptr inbounds nuw %class.LibRaw, ptr %9, i32 0, i32 11
  store { i64, i64 } { i64 ptrtoint (ptr @_ZN6LibRaw16smal_v9_load_rawEv to i64), i64 0 }, ptr %101, align 8, !tbaa !91
  br label %102

102:                                              ; preds = %100, %97
  store i32 0, ptr %8, align 4
  br label %103

103:                                              ; preds = %102, %47
  call void @llvm.lifetime.end.p0(i64 4, ptr %7) #10
  %104 = load i32, ptr %8, align 4
  switch i32 %104, label %106 [
    i32 0, label %105
    i32 1, label %105
  ]

105:                                              ; preds = %103, %103
  ret void

106:                                              ; preds = %103
  unreachable
}