; Function Attrs: mustprogress uwtable
define void @_ZN6LibRaw10parse_smalEii(ptr noundef nonnull align 8 dereferenceable(767680) initializes((381552, 381554)) %0, i32 noundef %1, i32 noundef %2) local_unnamed_addr #0 align 2 {
  %4 = getelementptr inbounds nuw i8, ptr %0, i64 381416
  %5 = load ptr, ptr %4, align 8, !tbaa !6
  %6 = add nsw i32 %1, 2
  %7 = sext i32 %6 to i64
  %8 = load ptr, ptr %5, align 8, !tbaa !71
  %9 = getelementptr inbounds nuw i8, ptr %8, i64 32
  %10 = load ptr, ptr %9, align 8
  %11 = tail call noundef i32 %10(ptr noundef nonnull align 8 dereferenceable(8) %5, i64 noundef %7, i32 noundef 0)
  %12 = getelementptr inbounds nuw i8, ptr %0, i64 381552
  store i16 18761, ptr %12, align 8, !tbaa !83
  %13 = load ptr, ptr %4, align 8, !tbaa !6
  %14 = load ptr, ptr %13, align 8, !tbaa !71
  %15 = getelementptr inbounds nuw i8, ptr %14, i64 56
  %16 = load ptr, ptr %15, align 8
  %17 = tail call noundef i32 %16(ptr noundef nonnull align 8 dereferenceable(8) %13)
  %18 = icmp eq i32 %17, 6
  br i1 %18, label %.thread, label %19

19:                                               ; preds = %3
  %20 = tail call noundef i32 @_ZN6LibRaw4get4Ev(ptr noundef nonnull align 8 dereferenceable(767680) %0)
  %.not = icmp eq i32 %20, %2
  br i1 %.not, label %27, label %48

.thread:                                          ; preds = %3
  %21 = load ptr, ptr %4, align 8, !tbaa !6
  %22 = load ptr, ptr %21, align 8, !tbaa !71
  %23 = getelementptr inbounds nuw i8, ptr %22, i64 32
  %24 = load ptr, ptr %23, align 8
  %25 = tail call noundef i32 %24(ptr noundef nonnull align 8 dereferenceable(8) %21, i64 noundef 5, i32 noundef 1)
  %26 = tail call noundef i32 @_ZN6LibRaw4get4Ev(ptr noundef nonnull align 8 dereferenceable(767680) %0)
  %.not9 = icmp eq i32 %26, %2
  br i1 %.not9, label %.thread10, label %48

27:                                               ; preds = %19
  %28 = icmp sgt i32 %17, 6
  br i1 %28, label %29, label %.thread10

29:                                               ; preds = %27
  %30 = tail call noundef i32 @_ZN6LibRaw4get4Ev(ptr noundef nonnull align 8 dereferenceable(767680) %0)
  %31 = zext i32 %30 to i64
  %32 = getelementptr inbounds nuw i8, ptr %0, i64 381584
  store i64 %31, ptr %32, align 8, !tbaa !95
  br label %.thread10

.thread10:                                        ; preds = %.thread, %29, %27
  %33 = tail call noundef zeroext i16 @_ZN6LibRaw4get2Ev(ptr noundef nonnull align 8 dereferenceable(767680) %0)
  %34 = getelementptr inbounds nuw i8, ptr %0, i64 16
  %35 = getelementptr inbounds nuw i8, ptr %0, i64 20
  store i16 %33, ptr %35, align 4, !tbaa !98
  store i16 %33, ptr %34, align 8, !tbaa !87
  %36 = tail call noundef zeroext i16 @_ZN6LibRaw4get2Ev(ptr noundef nonnull align 8 dereferenceable(767680) %0)
  %37 = getelementptr inbounds nuw i8, ptr %0, i64 22
  store i16 %36, ptr %37, align 2, !tbaa !99
  %38 = getelementptr inbounds nuw i8, ptr %0, i64 18
  store i16 %36, ptr %38, align 2, !tbaa !86
  %39 = getelementptr inbounds nuw i8, ptr %0, i64 204
  tail call void @llvm.memcpy.p0.p0.i64(ptr noundef nonnull align 4 dereferenceable(5) %39, ptr noundef nonnull align 1 dereferenceable(5) @.str.6, i64 5, i1 false) #13
  %40 = getelementptr inbounds nuw i8, ptr %0, i64 268
  %41 = zext i16 %36 to i32
  %42 = load i16, ptr %35, align 4, !tbaa !98
  %43 = zext i16 %42 to i32
  %44 = tail call i32 (ptr, ptr, ...) @sprintf(ptr noundef nonnull dereferenceable(1) %40, ptr noundef nonnull dereferenceable(1) @.str.7, i32 noundef %17, i32 noundef %41, i32 noundef %43) #13
  br i1 %18, label %.sink.split, label %45

45:                                               ; preds = %.thread10
  %46 = icmp eq i32 %17, 9
  br i1 %46, label %.sink.split, label %48

.sink.split:                                      ; preds = %45, %.thread10
  %.sink = phi i64 [ ptrtoint (ptr @_ZN6LibRaw16smal_v6_load_rawEv to i64), %.thread10 ], [ ptrtoint (ptr @_ZN6LibRaw16smal_v9_load_rawEv to i64), %45 ]
  %47 = getelementptr inbounds nuw i8, ptr %0, i64 767584
  store i64 %.sink, ptr %47, align 8, !tbaa !88
  %.repack7 = getelementptr inbounds nuw i8, ptr %0, i64 767592
  store i64 0, ptr %.repack7, align 8, !tbaa !88
  br label %48

48:                                               ; preds = %.sink.split, %.thread, %45, %19
  ret void
}